; ModuleID = 'source-C-CXX/27/1679.c'
source_filename = "source-C-CXX/27/1679.c"
target datalayout = "e-m:e-p270:32:32-p271:32:32-p272:64:64-i64:64-f80:128-n8:16:32:64-S128"
target triple = "x86_64-pc-linux-gnu"

@.str = private unnamed_addr constant [4 x i8] c"%d,\00", align 1
@.str.1 = private unnamed_addr constant [3 x i8] c"%d\00", align 1

; Function Attrs: nounwind sspstrong uwtable
define dso_local i32 @main() local_unnamed_addr #0 {
  %1 = alloca [1000 x i8], align 16
  %2 = alloca [100 x [100 x i8]], align 16
  %3 = getelementptr inbounds [1000 x i8], [1000 x i8]* %1, i64 0, i64 0
  call void @llvm.lifetime.start.p0i8(i64 1000, i8* nonnull %3) #5
  %4 = getelementptr inbounds [100 x [100 x i8]], [100 x [100 x i8]]* %2, i64 0, i64 0, i64 0
  call void @llvm.lifetime.start.p0i8(i64 10000, i8* nonnull %4) #5
  %5 = call i32 (i8*, ...) bitcast (i32 (...)* @gets to i32 (i8*, ...)*)(i8* nonnull %3) #5
  %6 = call i64 @strlen(i8* noundef nonnull %3) #6
  %7 = trunc i64 %6 to i32
  %8 = icmp sgt i32 %7, 0
  br i1 %8, label %11, label %9

9:                                                ; preds = %0
  %10 = getelementptr inbounds [100 x [100 x i8]], [100 x [100 x i8]]* %2, i64 0, i64 0, i64 0
  store i8 0, i8* %10, align 16, !tbaa !5
  br label %50

11:                                               ; preds = %0
  %12 = and i64 %6, 4294967295
  br label %13

13:                                               ; preds = %11, %27
  %14 = phi i64 [ 0, %11 ], [ %30, %27 ]
  %15 = phi i32 [ 0, %11 ], [ %29, %27 ]
  %16 = phi i32 [ 0, %11 ], [ %28, %27 ]
  %17 = getelementptr inbounds [1000 x i8], [1000 x i8]* %1, i64 0, i64 %14
  %18 = load i8, i8* %17, align 1, !tbaa !5
  %19 = icmp eq i8 %18, 32
  %20 = sext i32 %16 to i64
  %21 = sext i32 %15 to i64
  %22 = getelementptr inbounds [100 x [100 x i8]], [100 x [100 x i8]]* %2, i64 0, i64 %20, i64 %21
  br i1 %19, label %25, label %23

23:                                               ; preds = %13
  store i8 %18, i8* %22, align 1, !tbaa !5
  %24 = add nsw i32 %15, 1
  br label %27

25:                                               ; preds = %13
  store i8 0, i8* %22, align 1, !tbaa !5
  %26 = add nsw i32 %16, 1
  br label %27

27:                                               ; preds = %23, %25
  %28 = phi i32 [ %16, %23 ], [ %26, %25 ]
  %29 = phi i32 [ %24, %23 ], [ 0, %25 ]
  %30 = add nuw nsw i64 %14, 1
  %31 = icmp eq i64 %30, %12
  br i1 %31, label %32, label %13, !llvm.loop !8

32:                                               ; preds = %27
  %33 = sext i32 %28 to i64
  %34 = sext i32 %29 to i64
  %35 = getelementptr inbounds [100 x [100 x i8]], [100 x [100 x i8]]* %2, i64 0, i64 %33, i64 %34
  store i8 0, i8* %35, align 1, !tbaa !5
  %36 = icmp sgt i32 %28, 0
  br i1 %36, label %37, label %50

37:                                               ; preds = %32
  %38 = zext i32 %28 to i64
  br label %39

39:                                               ; preds = %37, %47
  %40 = phi i64 [ 0, %37 ], [ %48, %47 ]
  %41 = getelementptr inbounds [100 x [100 x i8]], [100 x [100 x i8]]* %2, i64 0, i64 %40, i64 0
  %42 = call i64 @strlen(i8* noundef nonnull %41) #6
  %43 = trunc i64 %42 to i32
  %44 = icmp eq i32 %43, 0
  br i1 %44, label %47, label %45

45:                                               ; preds = %39
  %46 = call i32 (i8*, ...) @printf(i8* nonnull dereferenceable(1) getelementptr inbounds ([4 x i8], [4 x i8]* @.str, i64 0, i64 0), i32 %43)
  br label %47

47:                                               ; preds = %39, %45
  %48 = add nuw nsw i64 %40, 1
  %49 = icmp eq i64 %48, %38
  br i1 %49, label %50, label %39, !llvm.loop !10

50:                                               ; preds = %47, %9, %32
  %51 = phi i64 [ 0, %9 ], [ %33, %32 ], [ %33, %47 ]
  %52 = getelementptr inbounds [100 x [100 x i8]], [100 x [100 x i8]]* %2, i64 0, i64 %51, i64 0
  %53 = call i64 @strlen(i8* noundef nonnull %52) #6
  %54 = call i32 (i8*, ...) @printf(i8* nonnull dereferenceable(1) getelementptr inbounds ([3 x i8], [3 x i8]* @.str.1, i64 0, i64 0), i64 %53)
  call void @llvm.lifetime.end.p0i8(i64 10000, i8* nonnull %4) #5
  call void @llvm.lifetime.end.p0i8(i64 1000, i8* nonnull %3) #5
  ret i32 0
}

; Function Attrs: argmemonly mustprogress nofree nosync nounwind willreturn
declare void @llvm.lifetime.start.p0i8(i64 immarg, i8* nocapture) #1

declare i32 @gets(...) local_unnamed_addr #2

; Function Attrs: argmemonly mustprogress nofree nounwind readonly willreturn
declare i64 @strlen(i8* nocapture) local_unnamed_addr #3

; Function Attrs: nofree nounwind
declare noundef i32 @printf(i8* nocapture noundef readonly, ...) local_unnamed_addr #4

; Function Attrs: argmemonly mustprogress nofree nosync nounwind willreturn
declare void @llvm.lifetime.end.p0i8(i64 immarg, i8* nocapture) #1


!llvm.module.flags = !{!0, !1, !2, !3}
!llvm.ident = !{!4}

!0 = !{i32 1, !"wchar_size", i32 4}
!1 = !{i32 7, !"PIC Level", i32 2}
!2 = !{i32 7, !"PIE Level", i32 2}
!3 = !{i32 7, !"uwtable", i32 1}
!4 = !{!"clang version 13.0.0"}
!5 = !{!6, !6, i64 0}
!6 = !{!"omnipotent char", !7, i64 0}
!7 = !{!"Simple C/C++ TBAA"}
!8 = distinct !{!8, !9}
!9 = !{!"llvm.loop.mustprogress"}
!10 = distinct !{!10, !9}
